(lp0
(lp1
Vrtelephoneno
p2
aVserial_no
p3
aVhh_id
p4
aVcurrently_dead_or_out_migrated
p5
aVid
p6
aVhh_serial_no
p7
aVhl_id
p8
aVisdeadmigrated
p9
aVhl_expall_status
p10
aVrecordstatus
p11
aVstatus
p12
aVfidx
p13
aVclient_hh_id
p14
aVrecordupdatedcount
p15
aVas
p16
aVwt
p17
aVrespondentname
p18
aVfid
p19
aVclient_hl_id
p20
aVisnewrecord
p21
aVschedule_id
p22
aVfidh
p23
aVhh_expall_status
p24
aa(lp25
Vstate
p26
aVdistrict
p27
aVrural
p28
aVstratum_code
p29
aVpsu_id
p30
aVhouse_no
p31
aVhouse_hold_no
p32
aVname
p33
aVsex
p34
aVusual_residance
p35
aVrelation_to_head
p36
aVmember_identity
p37
aVfather_serial_no
p38
aVmother_serial_no
p39
aVdate_of_birth
p40
aVmonth_of_birth
p41
aVyear_of_birth
p42
aVage
p43
aVreligion
p44
aVsocial_group_code
p45
aVmarital_status
p46
aVdate_of_marriage
p47
aVmonth_of_marriage
p48
aVyear_of_marriage
p49
aVcurrently_attending_school
p50
aVreason_for_not_attending_school
p51
aVhighest_qualification
p52
aVoccupation_status
p53
aVdisability_status
p54
aVinjury_treatment_type
p55
aVillness_type
p56
aVtreatment_source
p57
aVsymptoms_pertaining_illness
p58
aVsought_medical_care
p59
aVdiagnosed_for
p60
aVdiagnosis_source
p61
aVregular_treatment
p62
aVregular_treatment_source
p63
aVchew
p64
aVsmoke
p65
aValcohol
p66
aVbuilding_no
p67
aVhouse_status
p68
aVhead_name
p69
aVhouse_structure
p70
aVowner_status
p71
aVdrinking_water_source
p72
aVis_water_filter
p73
aVwater_filteration
p74
aVtoilet_used
p75
aVis_toilet_shared
p76
aVhousehold_have_electricity
p77
aVlighting_source
p78
aVcooking_fuel
p79
aVno_of_dwelling_rooms
p80
aVkitchen_availability
p81
aVis_radio
p82
aVis_television
p83
aVis_computer
p84
aVis_telephone
p85
aVis_washing_machine
p86
aVis_refrigerator
p87
aVis_sewing_machine
p88
aVis_bicycle
p89
aVis_scooter
p90
aVis_car
p91
aVis_tractor
p92
aVis_water_pump
p93
aVcart
p94
aVland_possessed
p95
aVresidancial_status
p96
aViscoveredbyhealthscheme
p97
aVhealthscheme_1
p98
aVhealthscheme_2
p99
aVhousestatus
p100
aVhouseholdstatus
p101
aVisheadchanged
p102
aVheadname
p103
aVas_binned
p104
aVyear
p105
aa(lp106
g4
ag14
ag8
ag26
ag27
ag28
ag29
aVpsu_id
p107
ag31
ag32
ag5
ag7
ag33
ag34
ag35
ag36
ag37
ag38
ag39
ag40
ag41
ag42
ag43
ag44
ag45
ag46
ag47
ag48
ag49
ag50
ag51
ag52
ag53
ag54
ag55
ag56
ag57
ag58
ag59
ag60
ag61
ag62
ag63
ag64
ag65
ag66
ag12
ag24
ag20
ag3
ag67
ag68
ag69
ag70
ag71
ag72
ag73
ag74
ag75
ag76
ag77
ag78
ag79
ag80
ag81
ag82
ag83
ag84
ag85
ag86
ag87
ag88
ag89
ag90
ag91
ag92
ag93
ag94
ag95
ag10
aVisdeadmigrated
p108
ag96
aViscoveredbyhealthscheme
p109
aVhealthscheme_1
p110
aVhealthscheme_2
p111
aVhousestatus
p112
aVhouseholdstatus
p113
aVisheadchanged
p114
aVheadname
p115
aVfid
p116
aVfidh
p117
ag17
aVfidx
p118
aVas
p119
aVas_binned
p120
aVrespondentname
p121
aVrtelephoneno
p122
aVisnewrecord
p123
aVrecordupdatedcount
p124
aVrecordstatus
p125
aVschedule_id
p126
aVyear
p127
ag6
aa(lp128
Vpsu_id
p129
ag31
ag32
ag33
ag37
ag38
ag39
ag40
ag41
ag42
ag43
ag47
ag48
ag49
ag67
ag69
ag80
aVheadname
p130
aa(lp131
g26
ag27
ag28
ag29
ag34
ag35
ag36
ag44
ag45
ag46
ag50
ag51
ag52
ag53
ag54
ag55
ag56
ag57
ag58
ag59
ag60
ag61
ag62
ag63
ag64
ag65
ag66
ag68
ag70
ag71
ag72
ag73
ag74
ag75
ag76
ag77
ag78
ag79
ag81
ag82
ag83
ag84
ag85
ag86
ag87
ag88
ag89
ag90
ag91
ag92
ag93
ag94
ag95
ag96
aViscoveredbyhealthscheme
p132
aVhealthscheme_1
p133
aVhealthscheme_2
p134
aVhousestatus
p135
aVhouseholdstatus
p136
aVisheadchanged
p137
aVas_binned
p138
aVyear
p139
aa.